; Function Attrs: nounwind uwtable
define noundef i32 @redisvAsyncCommand(ptr noundef %ac, ptr noundef %fn, ptr noundef %privdata, ptr noundef %format, ptr noundef %ap) local_unnamed_addr #0 {
entry:
  %cmd = alloca ptr, align 8
  %call = call i32 @redisvFormatCommand(ptr noundef nonnull %cmd, ptr noundef %format, ptr noundef %ap) #14
  %cmp = icmp slt i32 %call, 0
  br i1 %cmp, label %return, label %if.end

if.end:                                           ; preds = %entry
  %0 = load ptr, ptr %cmd, align 8
  %conv = zext nneg i32 %call to i64
  %call1 = call fastcc i32 @__redisAsyncCommand(ptr noundef %ac, ptr noundef %fn, ptr noundef %privdata, ptr noundef %0, i64 noundef %conv), !range !7
  %1 = load ptr, ptr %cmd, align 8
  %2 = load ptr, ptr getelementptr inbounds (%struct.hiredisAllocFuncs, ptr @hiredisAllocFns, i64 0, i32 4), align 8
  call void %2(ptr noundef %1) #14
  br label %return

return:                                           ; preds = %entry, %if.end
  %retval.0 = phi i32 [ %call1, %if.end ], [ -1, %entry ]
  ret i32 %retval.0
}